target datalayout = "e-m:e-p270:32:32-p271:32:32-p272:64:64-i64:64-i128:128-f80:128-n8:16:32:64-S128"
target triple = "x86_64-pc-linux-gnu"

@.str.32 = private unnamed_addr constant [29 x i8] c"field '%s' is not an integer\00", align 1
@.str.33 = private unnamed_addr constant [33 x i8] c"field '%s' missing in date table\00", align 1
@.str.34 = private unnamed_addr constant [27 x i8] c"field '%s' is out-of-bound\00", align 1

; Function Attrs: nounwind uwtable
define internal i32 @getfield(ptr noundef %0, ptr noundef %1, i32 noundef %2, i32 noundef %3) #0 {
  %5 = alloca i32, align 4
  %6 = alloca ptr, align 8
  %7 = alloca ptr, align 8
  %8 = alloca i32, align 4
  %9 = alloca i32, align 4
  %10 = alloca i32, align 4
  %11 = alloca i32, align 4
  %12 = alloca i64, align 8
  %13 = alloca i32, align 4
  store ptr %0, ptr %6, align 8, !tbaa !4
  store ptr %1, ptr %7, align 8, !tbaa !9
  store i32 %2, ptr %8, align 4, !tbaa !20
  store i32 %3, ptr %9, align 4, !tbaa !20
  call void @llvm.lifetime.start.p0(i64 4, ptr %10) #9
  call void @llvm.lifetime.start.p0(i64 4, ptr %11) #9
  %14 = load ptr, ptr %6, align 8, !tbaa !4
  %15 = load ptr, ptr %7, align 8, !tbaa !9
  %16 = call i32 @lua_getfield(ptr noundef %14, i32 noundef -1, ptr noundef %15)
  store i32 %16, ptr %11, align 4, !tbaa !20
  call void @llvm.lifetime.start.p0(i64 8, ptr %12) #9
  %17 = load ptr, ptr %6, align 8, !tbaa !4
  %18 = call i64 @lua_tointegerx(ptr noundef %17, i32 noundef -1, ptr noundef %10)
  store i64 %18, ptr %12, align 8, !tbaa !30
  %19 = load i32, ptr %10, align 4, !tbaa !20
  %20 = icmp ne i32 %19, 0
  br i1 %20, label %51, label %21

21:                                               ; preds = %4
  %22 = load i32, ptr %11, align 4, !tbaa !20
  %23 = icmp ne i32 %22, 0
  %24 = zext i1 %23 to i32
  %25 = icmp ne i32 %24, 0
  %26 = zext i1 %25 to i32
  %27 = sext i32 %26 to i64
  %28 = call i64 @llvm.expect.i64(i64 %27, i64 0)
  %29 = icmp ne i64 %28, 0
  br i1 %29, label %30, label %34

30:                                               ; preds = %21
  %31 = load ptr, ptr %6, align 8, !tbaa !4
  %32 = load ptr, ptr %7, align 8, !tbaa !9
  %33 = call i32 (ptr, ptr, ...) @luaL_error(ptr noundef %31, ptr noundef @.str.32, ptr noundef %32)
  store i32 %33, ptr %5, align 4
  store i32 1, ptr %13, align 4
  br label %79

34:                                               ; preds = %21
  %35 = load i32, ptr %8, align 4, !tbaa !20
  %36 = icmp slt i32 %35, 0
  %37 = zext i1 %36 to i32
  %38 = icmp ne i32 %37, 0
  %39 = zext i1 %38 to i32
  %40 = sext i32 %39 to i64
  %41 = call i64 @llvm.expect.i64(i64 %40, i64 0)
  %42 = icmp ne i64 %41, 0
  br i1 %42, label %43, label %47

43:                                               ; preds = %34
  %44 = load ptr, ptr %6, align 8, !tbaa !4
  %45 = load ptr, ptr %7, align 8, !tbaa !9
  %46 = call i32 (ptr, ptr, ...) @luaL_error(ptr noundef %44, ptr noundef @.str.33, ptr noundef %45)
  store i32 %46, ptr %5, align 4
  store i32 1, ptr %13, align 4
  br label %79

47:                                               ; preds = %34
  br label %48

48:                                               ; preds = %47
  %49 = load i32, ptr %8, align 4, !tbaa !20
  %50 = sext i32 %49 to i64
  store i64 %50, ptr %12, align 8, !tbaa !30
  br label %75

51:                                               ; preds = %4
  %52 = load i64, ptr %12, align 8, !tbaa !30
  %53 = icmp sge i64 %52, 0
  br i1 %53, label %54, label %60

54:                                               ; preds = %51
  %55 = load i64, ptr %12, align 8, !tbaa !30
  %56 = load i32, ptr %9, align 4, !tbaa !20
  %57 = sext i32 %56 to i64
  %58 = sub nsw i64 %55, %57
  %59 = icmp sle i64 %58, 2147483647
  br i1 %59, label %70, label %66

60:                                               ; preds = %51
  %61 = load i32, ptr %9, align 4, !tbaa !20
  %62 = add nsw i32 -2147483648, %61
  %63 = sext i32 %62 to i64
  %64 = load i64, ptr %12, align 8, !tbaa !30
  %65 = icmp sle i64 %63, %64
  br i1 %65, label %70, label %66

66:                                               ; preds = %60, %54
  %67 = load ptr, ptr %6, align 8, !tbaa !4
  %68 = load ptr, ptr %7, align 8, !tbaa !9
  %69 = call i32 (ptr, ptr, ...) @luaL_error(ptr noundef %67, ptr noundef @.str.34, ptr noundef %68)
  store i32 %69, ptr %5, align 4
  store i32 1, ptr %13, align 4
  br label %79

70:                                               ; preds = %60, %54
  %71 = load i32, ptr %9, align 4, !tbaa !20
  %72 = sext i32 %71 to i64
  %73 = load i64, ptr %12, align 8, !tbaa !30
  %74 = sub nsw i64 %73, %72
  store i64 %74, ptr %12, align 8, !tbaa !30
  br label %75

75:                                               ; preds = %70, %48
  %76 = load ptr, ptr %6, align 8, !tbaa !4
  call void @lua_settop(ptr noundef %76, i32 noundef -2)
  %77 = load i64, ptr %12, align 8, !tbaa !30
  %78 = trunc i64 %77 to i32
  store i32 %78, ptr %5, align 4
  store i32 1, ptr %13, align 4
  br label %79

79:                                               ; preds = %75, %66, %43, %30
  call void @llvm.lifetime.end.p0(i64 8, ptr %12) #9
  call void @llvm.lifetime.end.p0(i64 4, ptr %11) #9
  call void @llvm.lifetime.end.p0(i64 4, ptr %10) #9
  %80 = load i32, ptr %5, align 4
  ret i32 %80
}