; Function Attrs: nounwind uwtable
define internal fastcc i32 @getfield(ptr noundef %0, ptr noundef %1, i32 noundef range(i32 -1, 13) %2, i32 noundef range(i32 0, 1901) %3) unnamed_addr #0 {
  %5 = alloca i32, align 4
  call void @llvm.lifetime.start.p0(i64 4, ptr nonnull %5) #12
  %6 = tail call i32 @lua_getfield(ptr noundef %0, i32 noundef -1, ptr noundef %1) #12
  %7 = call i64 @lua_tointegerx(ptr noundef %0, i32 noundef -1, ptr noundef nonnull %5) #12
  %8 = load i32, ptr %5, align 4, !tbaa !16
  %.not = icmp eq i32 %8, 0
  br i1 %.not, label %9, label %16

9:                                                ; preds = %4
  %.not24 = icmp eq i32 %6, 0
  br i1 %.not24, label %12, label %10, !prof !22

10:                                               ; preds = %9
  %11 = call i32 (ptr, ptr, ...) @luaL_error(ptr noundef %0, ptr noundef nonnull @.str.32, ptr noundef %1) #12
  br label %31

12:                                               ; preds = %9
  %13 = icmp slt i32 %2, 0
  br i1 %13, label %14, label %30, !prof !30

14:                                               ; preds = %12
  %15 = call i32 (ptr, ptr, ...) @luaL_error(ptr noundef %0, ptr noundef nonnull @.str.33, ptr noundef %1) #12
  br label %31

16:                                               ; preds = %4
  %17 = icmp sgt i64 %7, -1
  br i1 %17, label %18, label %22

18:                                               ; preds = %16
  %19 = zext nneg i32 %3 to i64
  %20 = sub nsw i64 %7, %19
  %21 = icmp slt i64 %20, 2147483648
  br i1 %21, label %27, label %25

22:                                               ; preds = %16
  %23 = or disjoint i32 %3, -2147483648
  %24 = sext i32 %23 to i64
  %.not25 = icmp samesign ult i64 %7, %24
  br i1 %.not25, label %25, label %27

25:                                               ; preds = %22, %18
  %26 = call i32 (ptr, ptr, ...) @luaL_error(ptr noundef %0, ptr noundef nonnull @.str.34, ptr noundef %1) #12
  br label %31

27:                                               ; preds = %22, %18
  %28 = trunc i64 %7 to i32
  %29 = sub i32 %28, %3
  br label %30

30:                                               ; preds = %12, %27
  %.0 = phi i32 [ %29, %27 ], [ %2, %12 ]
  call void @lua_settop(ptr noundef %0, i32 noundef -2) #12
  br label %31

31:                                               ; preds = %30, %25, %14, %10
  %.021 = phi i32 [ %.0, %30 ], [ %26, %25 ], [ %11, %10 ], [ %15, %14 ]
  call void @llvm.lifetime.end.p0(i64 4, ptr nonnull %5) #12
  ret i32 %.021
}